; ModuleID = '36/1127.cpp'
source_filename = "36/1127.cpp"
target datalayout = "e-m:e-p270:32:32-p271:32:32-p272:64:64-i64:64-f80:128-n8:16:32:64-S128"
target triple = "x86_64-pc-linux-gnu"

%"class.std::ios_base::Init" = type { i8 }
%"class.std::basic_istream" = type { i32 (...)**, i64, %"class.std::basic_ios" }
%"class.std::basic_ios" = type { %"class.std::ios_base", %"class.std::basic_ostream"*, i8, i8, %"class.std::basic_streambuf"*, %"class.std::ctype"*, %"class.std::num_put"*, %"class.std::num_get"* }
%"class.std::ios_base" = type { i32 (...)**, i64, i64, i32, i32, i32, %"struct.std::ios_base::_Callback_list"*, %"struct.std::ios_base::_Words", [8 x %"struct.std::ios_base::_Words"], i32, %"struct.std::ios_base::_Words"*, %"class.std::locale" }
%"struct.std::ios_base::_Callback_list" = type { %"struct.std::ios_base::_Callback_list"*, void (i32, %"class.std::ios_base"*, i32)*, i32, i32 }
%"struct.std::ios_base::_Words" = type { i8*, i64 }
%"class.std::locale" = type { %"class.std::locale::_Impl"* }
%"class.std::locale::_Impl" = type { i32, %"class.std::locale::facet"**, i64, %"class.std::locale::facet"**, i8** }
%"class.std::locale::facet" = type <{ i32 (...)**, i32, [4 x i8] }>
%"class.std::basic_ostream" = type { i32 (...)**, %"class.std::basic_ios" }
%"class.std::basic_streambuf" = type { i32 (...)**, i8*, i8*, i8*, i8*, i8*, i8*, %"class.std::locale" }
%"class.std::ctype" = type <{ %"class.std::locale::facet.base", [4 x i8], %struct.__locale_struct*, i8, [7 x i8], i32*, i32*, i16*, i8, [256 x i8], [256 x i8], i8, [6 x i8] }>
%"class.std::locale::facet.base" = type <{ i32 (...)**, i32 }>
%struct.__locale_struct = type { [13 x %struct.__locale_data*], i16*, i32*, i32*, [13 x i8*] }
%struct.__locale_data = type opaque
%"class.std::num_put" = type { %"class.std::locale::facet.base", [4 x i8] }
%"class.std::num_get" = type { %"class.std::locale::facet.base", [4 x i8] }

@_ZStL8__ioinit = internal global %"class.std::ios_base::Init" zeroinitializer, align 1
@__dso_handle = external hidden global i8
@_ZSt3cin = external dso_local global %"class.std::basic_istream", align 8
@_ZSt4cout = external dso_local global %"class.std::basic_ostream", align 8
@.str = private unnamed_addr constant [3 x i8] c"NO\00", align 1
@.str.1 = private unnamed_addr constant [4 x i8] c"YES\00", align 1
@llvm.global_ctors = appending global [1 x { i32, void ()*, i8* }] [{ i32, void ()*, i8* } { i32 65535, void ()* @_GLOBAL__sub_I_1127.cpp, i8* null }]

; Function Attrs: noinline uwtable
define internal void @__cxx_global_var_init() #0 section ".text.startup" {
  call void @_ZNSt8ios_base4InitC1Ev(%"class.std::ios_base::Init"* @_ZStL8__ioinit)
  %1 = call i32 @__cxa_atexit(void (i8*)* bitcast (void (%"class.std::ios_base::Init"*)* @_ZNSt8ios_base4InitD1Ev to void (i8*)*), i8* getelementptr inbounds (%"class.std::ios_base::Init", %"class.std::ios_base::Init"* @_ZStL8__ioinit, i32 0, i32 0), i8* @__dso_handle) #3
  ret void
}

declare dso_local void @_ZNSt8ios_base4InitC1Ev(%"class.std::ios_base::Init"*) unnamed_addr #1

; Function Attrs: nounwind
declare dso_local void @_ZNSt8ios_base4InitD1Ev(%"class.std::ios_base::Init"*) unnamed_addr #2

; Function Attrs: nounwind
declare dso_local i32 @__cxa_atexit(void (i8*)*, i8*, i8*) #3

; Function Attrs: noinline norecurse uwtable
define dso_local i32 @main() #4 {
  %1 = alloca i32, align 4
  %2 = alloca [100 x i8], align 16
  %3 = alloca [100 x i8], align 16
  %4 = alloca i32, align 4
  %5 = alloca i32, align 4
  %6 = alloca i32, align 4
  %7 = alloca i32, align 4
  %8 = alloca i32, align 4
  store i32 0, i32* %1, align 4
  store i32 0, i32* %4, align 4
  %9 = getelementptr inbounds [100 x i8], [100 x i8]* %2, i64 0, i64 0
  %10 = call dereferenceable(280) %"class.std::basic_istream"* @_ZStrsIcSt11char_traitsIcEERSt13basic_istreamIT_T0_ES6_PS3_(%"class.std::basic_istream"* dereferenceable(280) @_ZSt3cin, i8* %9)
  %11 = getelementptr inbounds [100 x i8], [100 x i8]* %3, i64 0, i64 0
  %12 = call dereferenceable(280) %"class.std::basic_istream"* @_ZStrsIcSt11char_traitsIcEERSt13basic_istreamIT_T0_ES6_PS3_(%"class.std::basic_istream"* dereferenceable(280) %10, i8* %11)
  %13 = getelementptr inbounds [100 x i8], [100 x i8]* %2, i64 0, i64 0
  %14 = call i64 @strlen(i8* %13) #6
  %15 = trunc i64 %14 to i32
  store i32 %15, i32* %5, align 4
  %16 = getelementptr inbounds [100 x i8], [100 x i8]* %3, i64 0, i64 0
  %17 = call i64 @strlen(i8* %16) #6
  %18 = trunc i64 %17 to i32
  store i32 %18, i32* %6, align 4
  %19 = load i32, i32* %5, align 4
  %20 = load i32, i32* %6, align 4
  %21 = icmp ne i32 %19, %20
  br i1 %21, label %22, label %25

22:                                               ; preds = %0
  %23 = call dereferenceable(272) %"class.std::basic_ostream"* @_ZStlsISt11char_traitsIcEERSt13basic_ostreamIcT_ES5_PKc(%"class.std::basic_ostream"* dereferenceable(272) @_ZSt4cout, i8* getelementptr inbounds ([3 x i8], [3 x i8]* @.str, i64 0, i64 0))
  %24 = call dereferenceable(272) %"class.std::basic_ostream"* @_ZNSolsEPFRSoS_E(%"class.std::basic_ostream"* %23, %"class.std::basic_ostream"* (%"class.std::basic_ostream"*)* @_ZSt4endlIcSt11char_traitsIcEERSt13basic_ostreamIT_T0_ES6_)
  store i32 0, i32* %1, align 4
  br label %73

25:                                               ; preds = %0
  store i32 0, i32* %7, align 4
  br label %26

26:                                               ; preds = %58, %25
  %27 = load i32, i32* %7, align 4
  %28 = load i32, i32* %5, align 4
  %29 = icmp slt i32 %27, %28
  br i1 %29, label %30, label %61

30:                                               ; preds = %26
  store i32 0, i32* %8, align 4
  br label %31

31:                                               ; preds = %54, %30
  %32 = load i32, i32* %8, align 4
  %33 = load i32, i32* %5, align 4
  %34 = icmp slt i32 %32, %33
  br i1 %34, label %35, label %57

35:                                               ; preds = %31
  %36 = load i32, i32* %8, align 4
  %37 = sext i32 %36 to i64
  %38 = getelementptr inbounds [100 x i8], [100 x i8]* %3, i64 0, i64 %37
  %39 = load i8, i8* %38, align 1
  %40 = sext i8 %39 to i32
  %41 = load i32, i32* %7, align 4
  %42 = sext i32 %41 to i64
  %43 = getelementptr inbounds [100 x i8], [100 x i8]* %2, i64 0, i64 %42
  %44 = load i8, i8* %43, align 1
  %45 = sext i8 %44 to i32
  %46 = icmp eq i32 %40, %45
  br i1 %46, label %47, label %53

47:                                               ; preds = %35
  %48 = load i32, i32* %8, align 4
  %49 = sext i32 %48 to i64
  %50 = getelementptr inbounds [100 x i8], [100 x i8]* %3, i64 0, i64 %49
  store i8 0, i8* %50, align 1
  %51 = load i32, i32* %4, align 4
  %52 = add nsw i32 %51, 1
  store i32 %52, i32* %4, align 4
  br label %57

53:                                               ; preds = %35
  br label %54

54:                                               ; preds = %53
  %55 = load i32, i32* %8, align 4
  %56 = add nsw i32 %55, 1
  store i32 %56, i32* %8, align 4
  br label %31

57:                                               ; preds = %47, %31
  br label %58

58:                                               ; preds = %57
  %59 = load i32, i32* %7, align 4
  %60 = add nsw i32 %59, 1
  store i32 %60, i32* %7, align 4
  br label %26

61:                                               ; preds = %26
  %62 = load i32, i32* %4, align 4
  %63 = load i32, i32* %5, align 4
  %64 = icmp eq i32 %62, %63
  br i1 %64, label %65, label %68

65:                                               ; preds = %61
  %66 = call dereferenceable(272) %"class.std::basic_ostream"* @_ZStlsISt11char_traitsIcEERSt13basic_ostreamIcT_ES5_PKc(%"class.std::basic_ostream"* dereferenceable(272) @_ZSt4cout, i8* getelementptr inbounds ([4 x i8], [4 x i8]* @.str.1, i64 0, i64 0))
  %67 = call dereferenceable(272) %"class.std::basic_ostream"* @_ZNSolsEPFRSoS_E(%"class.std::basic_ostream"* %66, %"class.std::basic_ostream"* (%"class.std::basic_ostream"*)* @_ZSt4endlIcSt11char_traitsIcEERSt13basic_ostreamIT_T0_ES6_)
  br label %71

68:                                               ; preds = %61
  %69 = call dereferenceable(272) %"class.std::basic_ostream"* @_ZStlsISt11char_traitsIcEERSt13basic_ostreamIcT_ES5_PKc(%"class.std::basic_ostream"* dereferenceable(272) @_ZSt4cout, i8* getelementptr inbounds ([3 x i8], [3 x i8]* @.str, i64 0, i64 0))
  %70 = call dereferenceable(272) %"class.std::basic_ostream"* @_ZNSolsEPFRSoS_E(%"class.std::basic_ostream"* %69, %"class.std::basic_ostream"* (%"class.std::basic_ostream"*)* @_ZSt4endlIcSt11char_traitsIcEERSt13basic_ostreamIT_T0_ES6_)
  br label %71

71:                                               ; preds = %68, %65
  br label %72

72:                                               ; preds = %71
  store i32 0, i32* %1, align 4
  br label %73

73:                                               ; preds = %72, %22
  %74 = load i32, i32* %1, align 4
  ret i32 %74
}

declare dso_local dereferenceable(280) %"class.std::basic_istream"* @_ZStrsIcSt11char_traitsIcEERSt13basic_istreamIT_T0_ES6_PS3_(%"class.std::basic_istream"* dereferenceable(280), i8*) #1

; Function Attrs: nounwind readonly
declare dso_local i64 @strlen(i8*) #5

declare dso_local dereferenceable(272) %"class.std::basic_ostream"* @_ZStlsISt11char_traitsIcEERSt13basic_ostreamIcT_ES5_PKc(%"class.std::basic_ostream"* dereferenceable(272), i8*) #1

declare dso_local dereferenceable(272) %"class.std::basic_ostream"* @_ZNSolsEPFRSoS_E(%"class.std::basic_ostream"*, %"class.std::basic_ostream"* (%"class.std::basic_ostream"*)*) #1

declare dso_local dereferenceable(272) %"class.std::basic_ostream"* @_ZSt4endlIcSt11char_traitsIcEERSt13basic_ostreamIT_T0_ES6_(%"class.std::basic_ostream"* dereferenceable(272)) #1

; Function Attrs: noinline uwtable
define internal void @_GLOBAL__sub_I_1127.cpp() #0 section ".text.startup" {
  call void @__cxx_global_var_init()
  ret void
}


!llvm.module.flags = !{!0}
!llvm.ident = !{!1}

!0 = !{i32 1, !"wchar_size", i32 4}
!1 = !{!"clang version 10.0.0-4ubuntu1 "}
